target datalayout = "e-m:e-p270:32:32-p271:32:32-p272:64:64-i64:64-i128:128-f80:128-n8:16:32:64-S128"
target triple = "x86_64-pc-linux-gnu"

%struct.PageHeaderData = type { %struct.PageXLogRecPtr, i16, i16, i16, i16, i16, i16, i32, [0 x %struct.ItemIdData] }
%struct.PageXLogRecPtr = type { i32, i32 }
%struct.ItemIdData = type { i32 }
%struct.GinPageOpaqueData = type { i32, i16, i16 }

; Function Attrs: inlinehint nounwind uwtable
define internal void @PageValidateSpecialPointer(ptr noundef %0) #2 {
  %2 = alloca ptr, align 8
  store ptr %0, ptr %2, align 8
  ret void
}

; Function Attrs: nounwind uwtable
define dso_local void @gin_mask(ptr noundef %0, i32 noundef %1) #0 {
  %3 = alloca ptr, align 8
  %4 = alloca i32, align 4
  %5 = alloca ptr, align 8
  %6 = alloca ptr, align 8
  %7 = alloca ptr, align 8
  store ptr %0, ptr %3, align 8
  store i32 %1, ptr %4, align 4
  call void @llvm.lifetime.start.p0(i64 8, ptr %5) #6
  %8 = load ptr, ptr %3, align 8
  store ptr %8, ptr %5, align 8
  call void @llvm.lifetime.start.p0(i64 8, ptr %6) #6
  %9 = load ptr, ptr %5, align 8
  store ptr %9, ptr %6, align 8
  call void @llvm.lifetime.start.p0(i64 8, ptr %7) #6
  %10 = load ptr, ptr %5, align 8
  call void @mask_page_lsn_and_checksum(ptr noundef %10)
  %11 = load ptr, ptr %5, align 8
  call void @PageValidateSpecialPointer(ptr noundef %11)
  %12 = load ptr, ptr %5, align 8
  %13 = load ptr, ptr %5, align 8
  %14 = getelementptr inbounds nuw %struct.PageHeaderData, ptr %13, i32 0, i32 5
  %15 = load i16, ptr %14, align 4
  %16 = zext i16 %15 to i32
  %17 = sext i32 %16 to i64
  %18 = getelementptr inbounds i8, ptr %12, i64 %17
  store ptr %18, ptr %7, align 8
  %19 = load ptr, ptr %5, align 8
  call void @mask_page_hint_bits(ptr noundef %19)
  %20 = load ptr, ptr %7, align 8
  %21 = getelementptr inbounds nuw %struct.GinPageOpaqueData, ptr %20, i32 0, i32 2
  %22 = load i16, ptr %21, align 2
  %23 = zext i16 %22 to i32
  %24 = and i32 %23, 4
  %25 = icmp ne i32 %24, 0
  br i1 %25, label %26, label %28

26:                                               ; preds = %2
  %27 = load ptr, ptr %5, align 8
  call void @mask_page_content(ptr noundef %27)
  br label %37

28:                                               ; preds = %2
  %29 = load ptr, ptr %6, align 8
  %30 = getelementptr inbounds nuw %struct.PageHeaderData, ptr %29, i32 0, i32 3
  %31 = load i16, ptr %30, align 4
  %32 = zext i16 %31 to i64
  %33 = icmp ugt i64 %32, 24
  br i1 %33, label %34, label %36

34:                                               ; preds = %28
  %35 = load ptr, ptr %5, align 8
  call void @mask_unused_space(ptr noundef %35)
  br label %36

36:                                               ; preds = %34, %28
  br label %37

37:                                               ; preds = %36, %26
  call void @llvm.lifetime.end.p0(i64 8, ptr %7) #6
  call void @llvm.lifetime.end.p0(i64 8, ptr %6) #6
  call void @llvm.lifetime.end.p0(i64 8, ptr %5) #6
  ret void
}