; Function Attrs: nounwind uwtable
define dso_local void @gin_mask(ptr noundef %0, i32 noundef %1) local_unnamed_addr #0 {
  tail call void @mask_page_lsn_and_checksum(ptr noundef %0) #6
  %3 = getelementptr inbounds nuw i8, ptr %0, i64 16
  %4 = load i16, ptr %3, align 4
  %5 = zext i16 %4 to i64
  %6 = getelementptr inbounds nuw i8, ptr %0, i64 %5
  tail call void @mask_page_hint_bits(ptr noundef %0) #6
  %7 = getelementptr inbounds nuw i8, ptr %6, i64 6
  %8 = load i16, ptr %7, align 2
  %9 = and i16 %8, 4
  %.not = icmp eq i16 %9, 0
  br i1 %.not, label %11, label %10

10:                                               ; preds = %2
  tail call void @mask_page_content(ptr noundef nonnull %0) #6
  br label %16

11:                                               ; preds = %2
  %12 = getelementptr inbounds nuw i8, ptr %0, i64 12
  %13 = load i16, ptr %12, align 4
  %14 = icmp ugt i16 %13, 24
  br i1 %14, label %15, label %16

15:                                               ; preds = %11
  tail call void @mask_unused_space(ptr noundef nonnull %0) #6
  br label %16

16:                                               ; preds = %11, %15, %10
  ret void
}